target datalayout = "e-m:e-p270:32:32-p271:32:32-p272:64:64-i64:64-i128:128-f80:128-n8:16:32:64-S128"
target triple = "x86_64-pc-linux-gnu"

%struct._lv_freetype_cache_node_t = type { ptr, i32, i32, i32, ptr, i32, ptr, ptr }

; Function Attrs: nounwind uwtable
define internal signext i8 @cache_node_cache_compare_cb(ptr noundef %0, ptr noundef %1) #0 {
  %3 = alloca i8, align 1
  %4 = alloca ptr, align 8
  %5 = alloca ptr, align 8
  %6 = alloca i32, align 4
  %7 = alloca i32, align 4
  store ptr %0, ptr %4, align 8, !tbaa !20
  store ptr %1, ptr %5, align 8, !tbaa !20
  %8 = load ptr, ptr %4, align 8, !tbaa !20
  %9 = getelementptr inbounds nuw %struct._lv_freetype_cache_node_t, ptr %8, i32 0, i32 2
  %10 = load i32, ptr %9, align 4, !tbaa !24
  %11 = load ptr, ptr %5, align 8, !tbaa !20
  %12 = getelementptr inbounds nuw %struct._lv_freetype_cache_node_t, ptr %11, i32 0, i32 2
  %13 = load i32, ptr %12, align 4, !tbaa !24
  %14 = icmp ne i32 %10, %13
  br i1 %14, label %15, label %25

15:                                               ; preds = %2
  %16 = load ptr, ptr %4, align 8, !tbaa !20
  %17 = getelementptr inbounds nuw %struct._lv_freetype_cache_node_t, ptr %16, i32 0, i32 2
  %18 = load i32, ptr %17, align 4, !tbaa !24
  %19 = load ptr, ptr %5, align 8, !tbaa !20
  %20 = getelementptr inbounds nuw %struct._lv_freetype_cache_node_t, ptr %19, i32 0, i32 2
  %21 = load i32, ptr %20, align 4, !tbaa !24
  %22 = icmp ugt i32 %18, %21
  %23 = select i1 %22, i32 1, i32 -1
  %24 = trunc i32 %23 to i8
  store i8 %24, ptr %3, align 1
  br label %60

25:                                               ; preds = %2
  %26 = load ptr, ptr %4, align 8, !tbaa !20
  %27 = getelementptr inbounds nuw %struct._lv_freetype_cache_node_t, ptr %26, i32 0, i32 1
  %28 = load i32, ptr %27, align 8, !tbaa !26
  %29 = load ptr, ptr %5, align 8, !tbaa !20
  %30 = getelementptr inbounds nuw %struct._lv_freetype_cache_node_t, ptr %29, i32 0, i32 1
  %31 = load i32, ptr %30, align 8, !tbaa !26
  %32 = icmp ne i32 %28, %31
  br i1 %32, label %33, label %43

33:                                               ; preds = %25
  %34 = load ptr, ptr %4, align 8, !tbaa !20
  %35 = getelementptr inbounds nuw %struct._lv_freetype_cache_node_t, ptr %34, i32 0, i32 1
  %36 = load i32, ptr %35, align 8, !tbaa !26
  %37 = load ptr, ptr %5, align 8, !tbaa !20
  %38 = getelementptr inbounds nuw %struct._lv_freetype_cache_node_t, ptr %37, i32 0, i32 1
  %39 = load i32, ptr %38, align 8, !tbaa !26
  %40 = icmp ugt i32 %36, %39
  %41 = select i1 %40, i32 1, i32 -1
  %42 = trunc i32 %41 to i8
  store i8 %42, ptr %3, align 1
  br label %60

43:                                               ; preds = %25
  call void @llvm.lifetime.start.p0(i64 4, ptr %6) #7
  %44 = load ptr, ptr %4, align 8, !tbaa !20
  %45 = getelementptr inbounds nuw %struct._lv_freetype_cache_node_t, ptr %44, i32 0, i32 0
  %46 = load ptr, ptr %45, align 8, !tbaa !27
  %47 = load ptr, ptr %5, align 8, !tbaa !20
  %48 = getelementptr inbounds nuw %struct._lv_freetype_cache_node_t, ptr %47, i32 0, i32 0
  %49 = load ptr, ptr %48, align 8, !tbaa !27
  %50 = call i32 @lv_strcmp(ptr noundef %46, ptr noundef %49)
  store i32 %50, ptr %6, align 4, !tbaa !3
  %51 = load i32, ptr %6, align 4, !tbaa !3
  %52 = icmp ne i32 %51, 0
  br i1 %52, label %53, label %58

53:                                               ; preds = %43
  %54 = load i32, ptr %6, align 4, !tbaa !3
  %55 = icmp sgt i32 %54, 0
  %56 = select i1 %55, i32 1, i32 -1
  %57 = trunc i32 %56 to i8
  store i8 %57, ptr %3, align 1
  store i32 1, ptr %7, align 4
  br label %59

58:                                               ; preds = %43
  store i8 0, ptr %3, align 1
  store i32 1, ptr %7, align 4
  br label %59

59:                                               ; preds = %58, %53
  call void @llvm.lifetime.end.p0(i64 4, ptr %6) #7
  br label %60

60:                                               ; preds = %59, %33, %15
  %61 = load i8, ptr %3, align 1
  ret i8 %61
}