; Function Attrs: nounwind uwtable
define internal signext range(i8 -1, 2) i8 @cache_node_cache_compare_cb(ptr nocapture noundef readonly %0, ptr nocapture noundef readonly %1) #0 {
  %3 = getelementptr inbounds nuw i8, ptr %0, i64 12
  %4 = load i32, ptr %3, align 4, !tbaa !22
  %5 = getelementptr inbounds nuw i8, ptr %1, i64 12
  %6 = load i32, ptr %5, align 4, !tbaa !22
  %.not = icmp eq i32 %4, %6
  br i1 %.not, label %10, label %7

7:                                                ; preds = %2
  %8 = icmp ugt i32 %4, %6
  %9 = select i1 %8, i8 1, i8 -1
  br label %23

10:                                               ; preds = %2
  %11 = getelementptr inbounds nuw i8, ptr %0, i64 8
  %12 = load i32, ptr %11, align 8, !tbaa !24
  %13 = getelementptr inbounds nuw i8, ptr %1, i64 8
  %14 = load i32, ptr %13, align 8, !tbaa !24
  %.not17 = icmp eq i32 %12, %14
  br i1 %.not17, label %18, label %15

15:                                               ; preds = %10
  %16 = icmp ugt i32 %12, %14
  %17 = select i1 %16, i8 1, i8 -1
  br label %23

18:                                               ; preds = %10
  %19 = load ptr, ptr %0, align 8, !tbaa !25
  %20 = load ptr, ptr %1, align 8, !tbaa !25
  %21 = tail call i32 @lv_strcmp(ptr noundef %19, ptr noundef %20) #8
  %.not18 = icmp eq i32 %21, 0
  %.inv = icmp slt i32 %21, 1
  %22 = select i1 %.inv, i8 -1, i8 1
  %.1 = select i1 %.not18, i8 0, i8 %22
  br label %23

23:                                               ; preds = %18, %15, %7
  %.0 = phi i8 [ %9, %7 ], [ %17, %15 ], [ %.1, %18 ]
  ret i8 %.0
}